target datalayout = "e-m:e-p270:32:32-p271:32:32-p272:64:64-i64:64-i128:128-f80:128-n8:16:32:64-S128"
target triple = "x86_64-pc-linux-gnu"

%struct.x509_st = type { %struct.x509_cinf_st, %struct.X509_algor_st, %struct.asn1_string_st, %struct.x509_sig_info_st, %struct.CRYPTO_REF_COUNT, %struct.crypto_ex_data_st, i64, i64, i32, i32, i32, i32, ptr, ptr, ptr, ptr, ptr, ptr, ptr, ptr, [20 x i8], ptr, ptr, i32, ptr, ptr, ptr }
%struct.x509_cinf_st = type { ptr, %struct.asn1_string_st, %struct.X509_algor_st, ptr, %struct.X509_val_st, ptr, ptr, ptr, ptr, ptr, %struct.ASN1_ENCODING_st }
%struct.X509_val_st = type { ptr, ptr }
%struct.ASN1_ENCODING_st = type { ptr, i64, i32 }
%struct.X509_algor_st = type { ptr, ptr }
%struct.asn1_string_st = type { i32, i32, ptr, i64 }
%struct.x509_sig_info_st = type { i32, i32, i32, i32 }
%struct.CRYPTO_REF_COUNT = type { i32 }
%struct.crypto_ex_data_st = type { ptr, ptr }
%struct.x509_store_ctx_st = type { ptr, ptr, ptr, ptr, ptr, ptr, ptr, ptr, ptr, ptr, ptr, ptr, ptr, ptr, ptr, ptr, ptr, ptr, i32, i32, ptr, ptr, i32, i32, i32, ptr, ptr, ptr, i32, i32, ptr, %struct.crypto_ex_data_st, ptr, i32, ptr, ptr, ptr }

; Function Attrs: nounwind uwtable
define internal i32 @sk_X509_contains(ptr noundef %0, ptr noundef %1) #0 {
  %3 = alloca i32, align 4
  %4 = alloca ptr, align 8
  %5 = alloca ptr, align 8
  %6 = alloca i32, align 4
  %7 = alloca i32, align 4
  %8 = alloca i32, align 4
  store ptr %0, ptr %4, align 8, !tbaa !60
  store ptr %1, ptr %5, align 8, !tbaa !3
  call void @llvm.lifetime.start.p0(i64 4, ptr %6) #8
  call void @llvm.lifetime.start.p0(i64 4, ptr %7) #8
  %9 = load ptr, ptr %4, align 8, !tbaa !60
  %10 = call ptr @ossl_check_const_X509_sk_type(ptr noundef %9)
  %11 = call i32 @OPENSSL_sk_num(ptr noundef %10)
  store i32 %11, ptr %7, align 4, !tbaa !8
  store i32 0, ptr %6, align 4, !tbaa !8
  br label %12

12:                                               ; preds = %26, %2
  %13 = load i32, ptr %6, align 4, !tbaa !8
  %14 = load i32, ptr %7, align 4, !tbaa !8
  %15 = icmp slt i32 %13, %14
  br i1 %15, label %16, label %29

16:                                               ; preds = %12
  %17 = load ptr, ptr %4, align 8, !tbaa !60
  %18 = call ptr @ossl_check_const_X509_sk_type(ptr noundef %17)
  %19 = load i32, ptr %6, align 4, !tbaa !8
  %20 = call ptr @OPENSSL_sk_value(ptr noundef %18, i32 noundef %19)
  %21 = load ptr, ptr %5, align 8, !tbaa !3
  %22 = call i32 @X509_cmp(ptr noundef %20, ptr noundef %21)
  %23 = icmp eq i32 %22, 0
  br i1 %23, label %24, label %25

24:                                               ; preds = %16
  store i32 1, ptr %3, align 4
  store i32 1, ptr %8, align 4
  br label %30

25:                                               ; preds = %16
  br label %26

26:                                               ; preds = %25
  %27 = load i32, ptr %6, align 4, !tbaa !8
  %28 = add nsw i32 %27, 1
  store i32 %28, ptr %6, align 4, !tbaa !8
  br label %12, !llvm.loop !236

29:                                               ; preds = %12
  store i32 0, ptr %3, align 4
  store i32 1, ptr %8, align 4
  br label %30

30:                                               ; preds = %29, %24
  call void @llvm.lifetime.end.p0(i64 4, ptr %7) #8
  call void @llvm.lifetime.end.p0(i64 4, ptr %6) #8
  %31 = load i32, ptr %3, align 4
  ret i32 %31
}

; Function Attrs: inlinehint nounwind uwtable
define internal ptr @ossl_check_const_X509_sk_type(ptr noundef %0) #3 {
  %2 = alloca ptr, align 8
  store ptr %0, ptr %2, align 8, !tbaa !60
  %3 = load ptr, ptr %2, align 8, !tbaa !60
  ret ptr %3
}

; Function Attrs: nounwind uwtable
define internal ptr @get0_best_issuer_sk(ptr noundef %0, i32 noundef %1, i32 noundef %2, ptr noundef %3, ptr noundef %4) #0 {
  %6 = alloca ptr, align 8
  %7 = alloca ptr, align 8
  %8 = alloca i32, align 4
  %9 = alloca i32, align 4
  %10 = alloca ptr, align 8
  %11 = alloca ptr, align 8
  %12 = alloca i32, align 4
  %13 = alloca ptr, align 8
  %14 = alloca ptr, align 8
  %15 = alloca i32, align 4
  store ptr %0, ptr %7, align 8, !tbaa !40
  store i32 %1, ptr %8, align 4, !tbaa !8
  store i32 %2, ptr %9, align 4, !tbaa !8
  store ptr %3, ptr %10, align 8, !tbaa !60
  store ptr %4, ptr %11, align 8, !tbaa !3
  call void @llvm.lifetime.start.p0(i64 4, ptr %12) #8
  call void @llvm.lifetime.start.p0(i64 8, ptr %13) #8
  call void @llvm.lifetime.start.p0(i64 8, ptr %14) #8
  store ptr null, ptr %14, align 8, !tbaa !3
  store i32 0, ptr %12, align 4, !tbaa !8
  br label %16

16:                                               ; preds = %89, %5
  %17 = load i32, ptr %12, align 4, !tbaa !8
  %18 = load ptr, ptr %10, align 8, !tbaa !60
  %19 = call ptr @ossl_check_const_X509_sk_type(ptr noundef %18)
  %20 = call i32 @OPENSSL_sk_num(ptr noundef %19)
  %21 = icmp slt i32 %17, %20
  br i1 %21, label %22, label %92

22:                                               ; preds = %16
  %23 = load ptr, ptr %10, align 8, !tbaa !60
  %24 = call ptr @ossl_check_const_X509_sk_type(ptr noundef %23)
  %25 = load i32, ptr %12, align 4, !tbaa !8
  %26 = call ptr @OPENSSL_sk_value(ptr noundef %24, i32 noundef %25)
  store ptr %26, ptr %13, align 8, !tbaa !3
  %27 = load i32, ptr %9, align 4, !tbaa !8
  %28 = icmp ne i32 %27, 0
  br i1 %28, label %29, label %50

29:                                               ; preds = %22
  %30 = load ptr, ptr %11, align 8, !tbaa !3
  %31 = getelementptr inbounds nuw %struct.x509_st, ptr %30, i32 0, i32 8
  %32 = load i32, ptr %31, align 8, !tbaa !12
  %33 = and i32 %32, 32
  %34 = icmp ne i32 %33, 0
  br i1 %34, label %35, label %42

35:                                               ; preds = %29
  %36 = load ptr, ptr %7, align 8, !tbaa !40
  %37 = getelementptr inbounds nuw %struct.x509_store_ctx_st, ptr %36, i32 0, i32 20
  %38 = load ptr, ptr %37, align 8, !tbaa !61
  %39 = call ptr @ossl_check_const_X509_sk_type(ptr noundef %38)
  %40 = call i32 @OPENSSL_sk_num(ptr noundef %39)
  %41 = icmp eq i32 %40, 1
  br i1 %41, label %50, label %42

42:                                               ; preds = %35, %29
  %43 = load ptr, ptr %7, align 8, !tbaa !40
  %44 = getelementptr inbounds nuw %struct.x509_store_ctx_st, ptr %43, i32 0, i32 20
  %45 = load ptr, ptr %44, align 8, !tbaa !61
  %46 = load ptr, ptr %13, align 8, !tbaa !3
  %47 = call i32 @sk_X509_contains(ptr noundef %45, ptr noundef %46)
  %48 = icmp ne i32 %47, 0
  br i1 %48, label %49, label %50

49:                                               ; preds = %42
  br label %89

50:                                               ; preds = %42, %35, %22
  %51 = load ptr, ptr %7, align 8, !tbaa !40
  %52 = getelementptr inbounds nuw %struct.x509_store_ctx_st, ptr %51, i32 0, i32 9
  %53 = load ptr, ptr %52, align 8, !tbaa !68
  %54 = load ptr, ptr %7, align 8, !tbaa !40
  %55 = load ptr, ptr %11, align 8, !tbaa !3
  %56 = load ptr, ptr %13, align 8, !tbaa !3
  %57 = call i32 %53(ptr noundef %54, ptr noundef %55, ptr noundef %56)
  %58 = icmp ne i32 %57, 0
  br i1 %58, label %59, label %88

59:                                               ; preds = %50
  %60 = load i32, ptr %8, align 4, !tbaa !8
  %61 = icmp ne i32 %60, 0
  br i1 %61, label %62, label %68

62:                                               ; preds = %59
  %63 = load ptr, ptr %13, align 8, !tbaa !3
  %64 = load ptr, ptr %11, align 8, !tbaa !3
  %65 = call i32 @ossl_x509_signing_allowed(ptr noundef %63, ptr noundef %64)
  %66 = icmp ne i32 %65, 0
  br i1 %66, label %67, label %68

67:                                               ; preds = %62
  br label %89

68:                                               ; preds = %62, %59
  %69 = load ptr, ptr %7, align 8, !tbaa !40
  %70 = load ptr, ptr %13, align 8, !tbaa !3
  %71 = call i32 @ossl_x509_check_cert_time(ptr noundef %69, ptr noundef %70, i32 noundef -1)
  %72 = icmp ne i32 %71, 0
  br i1 %72, label %73, label %75

73:                                               ; preds = %68
  %74 = load ptr, ptr %13, align 8, !tbaa !3
  store ptr %74, ptr %6, align 8
  store i32 1, ptr %15, align 4
  br label %94

75:                                               ; preds = %68
  %76 = load ptr, ptr %14, align 8, !tbaa !3
  %77 = icmp eq ptr %76, null
  br i1 %77, label %85, label %78

78:                                               ; preds = %75
  %79 = load ptr, ptr %13, align 8, !tbaa !3
  %80 = call ptr @X509_get0_notAfter(ptr noundef %79)
  %81 = load ptr, ptr %14, align 8, !tbaa !3
  %82 = call ptr @X509_get0_notAfter(ptr noundef %81)
  %83 = call i32 @ASN1_TIME_compare(ptr noundef %80, ptr noundef %82)
  %84 = icmp sgt i32 %83, 0
  br i1 %84, label %85, label %87

85:                                               ; preds = %78, %75
  %86 = load ptr, ptr %13, align 8, !tbaa !3
  store ptr %86, ptr %14, align 8, !tbaa !3
  br label %87

87:                                               ; preds = %85, %78
  br label %88

88:                                               ; preds = %87, %50
  br label %89

89:                                               ; preds = %88, %67, %49
  %90 = load i32, ptr %12, align 4, !tbaa !8
  %91 = add nsw i32 %90, 1
  store i32 %91, ptr %12, align 4, !tbaa !8
  br label %16, !llvm.loop !79

92:                                               ; preds = %16
  %93 = load ptr, ptr %14, align 8, !tbaa !3
  store ptr %93, ptr %6, align 8
  store i32 1, ptr %15, align 4
  br label %94

94:                                               ; preds = %92, %73
  call void @llvm.lifetime.end.p0(i64 8, ptr %14) #8
  call void @llvm.lifetime.end.p0(i64 8, ptr %13) #8
  call void @llvm.lifetime.end.p0(i64 4, ptr %12) #8
  %95 = load ptr, ptr %6, align 8
  ret ptr %95
}