; Function Attrs: nounwind uwtable
define internal fastcc ptr @get0_best_issuer_sk(ptr noundef %0, i32 noundef range(i32 0, 2) %1, ptr noundef %2, ptr noundef %3) unnamed_addr #0 {
  %5 = tail call i32 @OPENSSL_sk_num(ptr noundef %2) #10
  %6 = icmp sgt i32 %5, 0
  br i1 %6, label %.lr.ph, label %._crit_edge

.lr.ph:                                           ; preds = %4
  %.not = icmp eq i32 %1, 0
  %7 = getelementptr inbounds nuw i8, ptr %3, i64 232
  %8 = getelementptr inbounds nuw i8, ptr %0, i64 152
  %9 = getelementptr inbounds nuw i8, ptr %0, i64 72
  br i1 %.not, label %sk_X509_contains.exit.thread.us, label %.lr.ph.split

sk_X509_contains.exit.thread.us:                  ; preds = %.lr.ph, %sk_X509_contains.exit.us
  %.034.us = phi ptr [ %.1.us, %sk_X509_contains.exit.us ], [ null, %.lr.ph ]
  %.02633.us = phi i32 [ %23, %sk_X509_contains.exit.us ], [ 0, %.lr.ph ]
  %10 = tail call ptr @OPENSSL_sk_value(ptr noundef %2, i32 noundef %.02633.us) #10
  %11 = load ptr, ptr %9, align 8, !tbaa !91
  %12 = tail call i32 %11(ptr noundef %0, ptr noundef %3, ptr noundef %10) #10
  %.not29.us = icmp eq i32 %12, 0
  br i1 %.not29.us, label %sk_X509_contains.exit.us, label %13

13:                                               ; preds = %sk_X509_contains.exit.thread.us
  %14 = tail call i32 @ossl_x509_check_cert_time(ptr noundef nonnull %0, ptr noundef %10, i32 noundef -1)
  %.not30.us = icmp eq i32 %14, 0
  br i1 %.not30.us, label %15, label %._crit_edge

15:                                               ; preds = %13
  %16 = icmp eq ptr %.034.us, null
  br i1 %16, label %22, label %17

17:                                               ; preds = %15
  %18 = tail call ptr @X509_get0_notAfter(ptr noundef %10) #10
  %19 = tail call ptr @X509_get0_notAfter(ptr noundef nonnull %.034.us) #10
  %20 = tail call i32 @ASN1_TIME_compare(ptr noundef %18, ptr noundef %19) #10
  %21 = icmp sgt i32 %20, 0
  br i1 %21, label %22, label %sk_X509_contains.exit.us

22:                                               ; preds = %17, %15
  br label %sk_X509_contains.exit.us

sk_X509_contains.exit.us:                         ; preds = %22, %17, %sk_X509_contains.exit.thread.us
  %.1.us = phi ptr [ %10, %22 ], [ %.034.us, %17 ], [ %.034.us, %sk_X509_contains.exit.thread.us ]
  %23 = add nuw nsw i32 %.02633.us, 1
  %24 = tail call i32 @OPENSSL_sk_num(ptr noundef %2) #10
  %25 = icmp slt i32 %23, %24
  br i1 %25, label %sk_X509_contains.exit.thread.us, label %._crit_edge, !llvm.loop !95

.lr.ph.split:                                     ; preds = %.lr.ph, %sk_X509_contains.exit
  %.034 = phi ptr [ %.1, %sk_X509_contains.exit ], [ null, %.lr.ph ]
  %.02633 = phi i32 [ %54, %sk_X509_contains.exit ], [ 0, %.lr.ph ]
  %26 = tail call ptr @OPENSSL_sk_value(ptr noundef %2, i32 noundef %.02633) #10
  %27 = load i32, ptr %7, align 8, !tbaa !3
  %28 = and i32 %27, 32
  %.not27 = icmp eq i32 %28, 0
  br i1 %.not27, label %33, label %29

29:                                               ; preds = %.lr.ph.split
  %30 = load ptr, ptr %8, align 8, !tbaa !56
  %31 = tail call i32 @OPENSSL_sk_num(ptr noundef %30) #10
  %32 = icmp eq i32 %31, 1
  br i1 %32, label %sk_X509_contains.exit.thread, label %33

33:                                               ; preds = %29, %.lr.ph.split
  %34 = load ptr, ptr %8, align 8, !tbaa !56
  %35 = tail call i32 @OPENSSL_sk_num(ptr noundef %34) #10
  %36 = icmp sgt i32 %35, 0
  br i1 %36, label %.lr.ph.i, label %sk_X509_contains.exit.thread

37:                                               ; preds = %.lr.ph.i
  %38 = add nuw nsw i32 %.078.i, 1
  %exitcond.not.i = icmp eq i32 %38, %35
  br i1 %exitcond.not.i, label %sk_X509_contains.exit.thread, label %.lr.ph.i, !llvm.loop !96

.lr.ph.i:                                         ; preds = %33, %37
  %.078.i = phi i32 [ %38, %37 ], [ 0, %33 ]
  %39 = tail call ptr @OPENSSL_sk_value(ptr noundef %34, i32 noundef %.078.i) #10
  %40 = tail call i32 @X509_cmp(ptr noundef %39, ptr noundef %26) #10
  %41 = icmp eq i32 %40, 0
  br i1 %41, label %sk_X509_contains.exit, label %37

sk_X509_contains.exit.thread:                     ; preds = %37, %33, %29
  %42 = load ptr, ptr %9, align 8, !tbaa !91
  %43 = tail call i32 %42(ptr noundef %0, ptr noundef %3, ptr noundef %26) #10
  %.not29 = icmp eq i32 %43, 0
  br i1 %.not29, label %sk_X509_contains.exit, label %44

44:                                               ; preds = %sk_X509_contains.exit.thread
  %45 = tail call i32 @ossl_x509_check_cert_time(ptr noundef nonnull %0, ptr noundef %26, i32 noundef -1)
  %.not30 = icmp eq i32 %45, 0
  br i1 %.not30, label %46, label %._crit_edge

46:                                               ; preds = %44
  %47 = icmp eq ptr %.034, null
  br i1 %47, label %53, label %48

48:                                               ; preds = %46
  %49 = tail call ptr @X509_get0_notAfter(ptr noundef %26) #10
  %50 = tail call ptr @X509_get0_notAfter(ptr noundef nonnull %.034) #10
  %51 = tail call i32 @ASN1_TIME_compare(ptr noundef %49, ptr noundef %50) #10
  %52 = icmp sgt i32 %51, 0
  br i1 %52, label %53, label %sk_X509_contains.exit

53:                                               ; preds = %48, %46
  br label %sk_X509_contains.exit

sk_X509_contains.exit:                            ; preds = %.lr.ph.i, %sk_X509_contains.exit.thread, %53, %48
  %.1 = phi ptr [ %26, %53 ], [ %.034, %48 ], [ %.034, %sk_X509_contains.exit.thread ], [ %.034, %.lr.ph.i ]
  %54 = add nuw nsw i32 %.02633, 1
  %55 = tail call i32 @OPENSSL_sk_num(ptr noundef %2) #10
  %56 = icmp slt i32 %54, %55
  br i1 %56, label %.lr.ph.split, label %._crit_edge, !llvm.loop !95

._crit_edge:                                      ; preds = %44, %sk_X509_contains.exit, %13, %sk_X509_contains.exit.us, %4
  %.025 = phi ptr [ null, %4 ], [ %.1.us, %sk_X509_contains.exit.us ], [ %10, %13 ], [ %.1, %sk_X509_contains.exit ], [ %26, %44 ]
  ret ptr %.025
}